target datalayout = "e-m:e-p270:32:32-p271:32:32-p272:64:64-i64:64-i128:128-f80:128-n8:16:32:64-S128"
target triple = "x86_64-pc-linux-gnu"

%"struct.std::_Vector_base.202" = type { %"struct.std::_Vector_base<Correspondence, std::allocator<Correspondence>>::_Vector_impl" }
%"struct.std::_Vector_base<Correspondence, std::allocator<Correspondence>>::_Vector_impl" = type { %"struct.std::_Vector_base<Correspondence, std::allocator<Correspondence>>::_Vector_impl_data" }
%"struct.std::_Vector_base<Correspondence, std::allocator<Correspondence>>::_Vector_impl_data" = type { ptr, ptr, ptr }
%"class.std::vector.201" = type { %"struct.std::_Vector_base.202" }
%"class.vcg::SimpleTempData" = type <{ %"class.vcg::SimpleTempDataBase", ptr, %"class.vcg::VectorNBW", i32, [4 x i8] }>
%"class.vcg::SimpleTempDataBase" = type { ptr }
%"class.vcg::VectorNBW" = type { %"class.std::vector.241" }
%"class.std::vector.241" = type { %"struct.std::_Vector_base.242" }
%"struct.std::_Vector_base.242" = type { %"struct.std::_Vector_base<std::vector<Correspondence>, std::allocator<std::vector<Correspondence>>>::_Vector_impl" }
%"struct.std::_Vector_base<std::vector<Correspondence>, std::allocator<std::vector<Correspondence>>>::_Vector_impl" = type { %"struct.std::_Vector_base<std::vector<Correspondence>, std::allocator<std::vector<Correspondence>>>::_Vector_impl_data" }
%"struct.std::_Vector_base<std::vector<Correspondence>, std::allocator<std::vector<Correspondence>>>::_Vector_impl_data" = type { ptr, ptr, ptr }
%"struct.std::_Vector_base.247" = type { %"struct.std::_Vector_base<unsigned long, std::allocator<unsigned long>>::_Vector_impl" }
%"struct.std::_Vector_base<unsigned long, std::allocator<unsigned long>>::_Vector_impl" = type { %"struct.std::_Vector_base<unsigned long, std::allocator<unsigned long>>::_Vector_impl_data" }
%"struct.std::_Vector_base<unsigned long, std::allocator<unsigned long>>::_Vector_impl_data" = type { ptr, ptr, ptr }

; Function Attrs: mustprogress nounwind uwtable
define internal noundef nonnull align 8 dereferenceable(24) ptr @_ZNSt6vectorIS_IZN18FilterCameraPlugin11applyFilterB5cxx11EPK7QActionRK17RichParameterListR12MeshDocumentRjPFbiPKcEE14CorrespondenceSaISE_EESaISG_EEixEm(ptr noundef nonnull align 8 dereferenceable(24) %0, i64 noundef %1) #4 align 2 {
  %3 = alloca ptr, align 8
  %4 = alloca i64, align 8
  store ptr %0, ptr %3, align 8
  store i64 %1, ptr %4, align 8
  %5 = load ptr, ptr %3, align 8
  %6 = getelementptr inbounds %"struct.std::_Vector_base.242", ptr %5, i32 0, i32 0
  %7 = getelementptr inbounds %"struct.std::_Vector_base<std::vector<Correspondence>, std::allocator<std::vector<Correspondence>>>::_Vector_impl_data", ptr %6, i32 0, i32 0
  %8 = load ptr, ptr %7, align 8
  %9 = load i64, ptr %4, align 8
  %10 = getelementptr inbounds %"class.std::vector.201", ptr %8, i64 %9
  ret ptr %10
}

; Function Attrs: mustprogress nounwind uwtable
define linkonce_odr noundef i64 @_ZNSt14numeric_limitsImE3maxEv() #4 comdat align 2 {
  ret i64 -1
}

; Function Attrs: mustprogress nounwind uwtable
define linkonce_odr noundef nonnull align 8 dereferenceable(8) ptr @_ZNSt6vectorImSaImEEixEm(ptr noundef nonnull align 8 dereferenceable(24) %0, i64 noundef %1) #4 comdat align 2 {
  %3 = alloca ptr, align 8
  %4 = alloca i64, align 8
  store ptr %0, ptr %3, align 8
  store i64 %1, ptr %4, align 8
  %5 = load ptr, ptr %3, align 8
  %6 = getelementptr inbounds %"struct.std::_Vector_base.247", ptr %5, i32 0, i32 0
  %7 = getelementptr inbounds %"struct.std::_Vector_base<unsigned long, std::allocator<unsigned long>>::_Vector_impl_data", ptr %6, i32 0, i32 0
  %8 = load ptr, ptr %7, align 8
  %9 = load i64, ptr %4, align 8
  %10 = getelementptr inbounds i64, ptr %8, i64 %9
  ret ptr %10
}

; Function Attrs: mustprogress nounwind uwtable
define internal noundef i64 @_ZNKSt6vectorIS_IZN18FilterCameraPlugin11applyFilterB5cxx11EPK7QActionRK17RichParameterListR12MeshDocumentRjPFbiPKcEE14CorrespondenceSaISE_EESaISG_EE4sizeEv(ptr noundef nonnull align 8 dereferenceable(24) %0) #4 align 2 {
  %2 = alloca ptr, align 8
  store ptr %0, ptr %2, align 8
  %3 = load ptr, ptr %2, align 8
  %4 = getelementptr inbounds %"struct.std::_Vector_base.242", ptr %3, i32 0, i32 0
  %5 = getelementptr inbounds %"struct.std::_Vector_base<std::vector<Correspondence>, std::allocator<std::vector<Correspondence>>>::_Vector_impl_data", ptr %4, i32 0, i32 1
  %6 = load ptr, ptr %5, align 8
  %7 = getelementptr inbounds %"struct.std::_Vector_base.242", ptr %3, i32 0, i32 0
  %8 = getelementptr inbounds %"struct.std::_Vector_base<std::vector<Correspondence>, std::allocator<std::vector<Correspondence>>>::_Vector_impl_data", ptr %7, i32 0, i32 0
  %9 = load ptr, ptr %8, align 8
  %10 = ptrtoint ptr %6 to i64
  %11 = ptrtoint ptr %9 to i64
  %12 = sub i64 %10, %11
  %13 = sdiv exact i64 %12, 24
  ret i64 %13
}

; Function Attrs: mustprogress uwtable
define internal void @_ZN3vcg14SimpleTempDataINS_6vertex10vector_ocfI8CVertexOEESt6vectorIZN18FilterCameraPlugin11applyFilterB5cxx11EPK7QActionRK17RichParameterListR12MeshDocumentRjPFbiPKcEE14CorrespondenceSaISK_EEE7ReorderERS5_ImSaImEE(ptr noundef nonnull align 8 dereferenceable(44) %0, ptr noundef nonnull align 8 dereferenceable(24) %1) unnamed_addr #5 align 2 {
  %3 = alloca ptr, align 8
  %4 = alloca ptr, align 8
  %5 = alloca i64, align 8
  store ptr %0, ptr %3, align 8
  store ptr %1, ptr %4, align 8
  %6 = load ptr, ptr %3, align 8
  store i64 0, ptr %5, align 8
  br label %7

7:                                                ; preds = %31, %2
  %8 = load i64, ptr %5, align 8
  %9 = getelementptr inbounds %"class.vcg::SimpleTempData", ptr %6, i32 0, i32 2
  %10 = call noundef i64 @_ZNKSt6vectorIS_IZN18FilterCameraPlugin11applyFilterB5cxx11EPK7QActionRK17RichParameterListR12MeshDocumentRjPFbiPKcEE14CorrespondenceSaISE_EESaISG_EE4sizeEv(ptr noundef nonnull align 8 dereferenceable(24) %9) #3
  %11 = icmp ult i64 %8, %10
  br i1 %11, label %12, label %34

12:                                               ; preds = %7
  %13 = load ptr, ptr %4, align 8
  %14 = load i64, ptr %5, align 8
  %15 = call noundef nonnull align 8 dereferenceable(8) ptr @_ZNSt6vectorImSaImEEixEm(ptr noundef nonnull align 8 dereferenceable(24) %13, i64 noundef %14) #3
  %16 = load i64, ptr %15, align 8
  %17 = call noundef i64 @_ZNSt14numeric_limitsImE3maxEv() #3
  %18 = icmp ne i64 %16, %17
  br i1 %18, label %19, label %30

19:                                               ; preds = %12
  %20 = getelementptr inbounds %"class.vcg::SimpleTempData", ptr %6, i32 0, i32 2
  %21 = load i64, ptr %5, align 8
  %22 = call noundef nonnull align 8 dereferenceable(24) ptr @_ZNSt6vectorIS_IZN18FilterCameraPlugin11applyFilterB5cxx11EPK7QActionRK17RichParameterListR12MeshDocumentRjPFbiPKcEE14CorrespondenceSaISE_EESaISG_EEixEm(ptr noundef nonnull align 8 dereferenceable(24) %20, i64 noundef %21) #3
  %23 = getelementptr inbounds %"class.vcg::SimpleTempData", ptr %6, i32 0, i32 2
  %24 = load ptr, ptr %4, align 8
  %25 = load i64, ptr %5, align 8
  %26 = call noundef nonnull align 8 dereferenceable(8) ptr @_ZNSt6vectorImSaImEEixEm(ptr noundef nonnull align 8 dereferenceable(24) %24, i64 noundef %25) #3
  %27 = load i64, ptr %26, align 8
  %28 = call noundef nonnull align 8 dereferenceable(24) ptr @_ZNSt6vectorIS_IZN18FilterCameraPlugin11applyFilterB5cxx11EPK7QActionRK17RichParameterListR12MeshDocumentRjPFbiPKcEE14CorrespondenceSaISE_EESaISG_EEixEm(ptr noundef nonnull align 8 dereferenceable(24) %23, i64 noundef %27) #3
  %29 = call noundef nonnull align 8 dereferenceable(24) ptr @_ZNSt6vectorIZN18FilterCameraPlugin11applyFilterB5cxx11EPK7QActionRK17RichParameterListR12MeshDocumentRjPFbiPKcEE14CorrespondenceSaISE_EEaSERKSG_(ptr noundef nonnull align 8 dereferenceable(24) %28, ptr noundef nonnull align 8 dereferenceable(24) %22)
  br label %30

30:                                               ; preds = %19, %12
  br label %31

31:                                               ; preds = %30
  %32 = load i64, ptr %5, align 8
  %33 = add i64 %32, 1
  store i64 %33, ptr %5, align 8
  br label %7, !llvm.loop !50

34:                                               ; preds = %7
  ret void
}