; Function Attrs: mustprogress uwtable
define internal void @_ZN3vcg14SimpleTempDataINS_6vertex10vector_ocfI8CVertexOEESt6vectorIZN18FilterCameraPlugin11applyFilterB5cxx11EPK7QActionRK17RichParameterListR12MeshDocumentRjPFbiPKcEE14CorrespondenceSaISK_EEE7ReorderERS5_ImSaImEE(ptr nocapture noundef nonnull readonly align 8 dereferenceable(44) %0, ptr nocapture noundef nonnull readonly align 8 dereferenceable(24) %1) unnamed_addr #9 align 2 {
  %3 = getelementptr inbounds i8, ptr %0, i64 16
  %4 = getelementptr inbounds i8, ptr %0, i64 24
  %.val10 = load ptr, ptr %3, align 8
  %.val711 = load ptr, ptr %4, align 8
  %.not14 = icmp eq ptr %.val711, %.val10
  br i1 %.not14, label %._crit_edge, label %.lr.ph

.lr.ph:                                           ; preds = %2, %12
  %.val717 = phi ptr [ %.val7, %12 ], [ %.val711, %2 ]
  %.val15 = phi ptr [ %.val, %12 ], [ %.val10, %2 ]
  %.012 = phi i64 [ %13, %12 ], [ 0, %2 ]
  %5 = load ptr, ptr %1, align 8
  %6 = getelementptr inbounds i64, ptr %5, i64 %.012
  %7 = load i64, ptr %6, align 8
  %.not = icmp eq i64 %7, -1
  br i1 %.not, label %12, label %8

8:                                                ; preds = %.lr.ph
  %9 = getelementptr inbounds %"class.std::vector.201", ptr %.val15, i64 %.012
  %10 = getelementptr inbounds %"class.std::vector.201", ptr %.val15, i64 %7
  %11 = tail call fastcc noundef nonnull align 8 dereferenceable(24) ptr @_ZNSt6vectorIZN18FilterCameraPlugin11applyFilterB5cxx11EPK7QActionRK17RichParameterListR12MeshDocumentRjPFbiPKcEE14CorrespondenceSaISE_EEaSERKSG_(ptr noundef nonnull align 8 dereferenceable(24) %10, ptr noundef nonnull align 8 dereferenceable(24) %9)
  %.val.pre = load ptr, ptr %3, align 8
  %.val7.pre = load ptr, ptr %4, align 8
  br label %12

12:                                               ; preds = %.lr.ph, %8
  %.val7 = phi ptr [ %.val717, %.lr.ph ], [ %.val7.pre, %8 ]
  %.val = phi ptr [ %.val15, %.lr.ph ], [ %.val.pre, %8 ]
  %13 = add nuw i64 %.012, 1
  %14 = ptrtoint ptr %.val7 to i64
  %15 = ptrtoint ptr %.val to i64
  %16 = sub i64 %14, %15
  %17 = sdiv exact i64 %16, 24
  %18 = icmp ult i64 %13, %17
  br i1 %18, label %.lr.ph, label %._crit_edge, !llvm.loop !90

._crit_edge:                                      ; preds = %12, %2
  ret void
}